; Function Attrs: mustprogress uwtable
define void @Z3_set_param_value(ptr noundef %c, ptr noundef %param_id, ptr noundef %param_value) local_unnamed_addr #3 personality ptr @__gxx_personality_v0 {
entry:
  %0 = atomicrmw xchg ptr @g_z3_log_enabled, i8 0 seq_cst, align 1
  %1 = and i8 %0, 1
  %tobool.i.not = icmp eq i8 %1, 0
  br i1 %tobool.i.not, label %if.end, label %if.then

if.then:                                          ; preds = %entry
  invoke void @_Z22log_Z3_set_param_valueP10_Z3_configPKcS2_(ptr noundef %c, ptr noundef %param_id, ptr noundef %param_value)
          to label %if.end unwind label %lpad

lpad:                                             ; preds = %invoke.cont7, %if.then
  %2 = landingpad { ptr, i32 }
          cleanup
  br label %ehcleanup

if.end:                                           ; preds = %if.then, %entry
  invoke void @_ZN14context_params3setEPKcS1_(ptr noundef nonnull align 8 dereferenceable(120) %c, ptr noundef %param_id, ptr noundef %param_value)
          to label %try.cont unwind label %lpad2

lpad2:                                            ; preds = %if.end
  %3 = landingpad { ptr, i32 }
          cleanup
          catch ptr @_ZTI12z3_exception
  %4 = extractvalue { ptr, i32 } %3, 1
  %5 = tail call i32 @llvm.eh.typeid.for(ptr nonnull @_ZTI12z3_exception) #10
  %matches = icmp eq i32 %4, %5
  br i1 %matches, label %catch, label %ehcleanup

catch:                                            ; preds = %lpad2
  %6 = extractvalue { ptr, i32 } %3, 0
  %7 = tail call ptr @__cxa_begin_catch(ptr %6) #10
  %vtable = load ptr, ptr %7, align 8
  %vfn = getelementptr inbounds i8, ptr %vtable, i64 16
  %8 = load ptr, ptr %vfn, align 8
  %call6 = invoke noundef ptr %8(ptr noundef nonnull align 8 dereferenceable(8) %7)
          to label %invoke.cont5 unwind label %lpad4

invoke.cont5:                                     ; preds = %catch
  invoke void (ptr, ...) @_Z11warning_msgPKcz(ptr noundef nonnull @.str, ptr noundef %call6)
          to label %invoke.cont7 unwind label %lpad4

invoke.cont7:                                     ; preds = %invoke.cont5
  invoke void @__cxa_end_catch()
          to label %try.cont unwind label %lpad

try.cont:                                         ; preds = %invoke.cont7, %if.end
  br i1 %tobool.i.not, label %_ZN10z3_log_ctxD2Ev.exit, label %if.then.i

if.then.i:                                        ; preds = %try.cont
  store atomic i8 1, ptr @g_z3_log_enabled seq_cst, align 1
  br label %_ZN10z3_log_ctxD2Ev.exit

_ZN10z3_log_ctxD2Ev.exit:                         ; preds = %try.cont, %if.then.i
  ret void

lpad4:                                            ; preds = %invoke.cont5, %catch
  %9 = landingpad { ptr, i32 }
          cleanup
  invoke void @__cxa_end_catch()
          to label %ehcleanup unwind label %terminate.lpad

ehcleanup:                                        ; preds = %lpad4, %lpad2, %lpad
  %lpad.val12.merged = phi { ptr, i32 } [ %2, %lpad ], [ %9, %lpad4 ], [ %3, %lpad2 ]
  br i1 %tobool.i.not, label %_ZN10z3_log_ctxD2Ev.exit7, label %if.then.i6

if.then.i6:                                       ; preds = %ehcleanup
  store atomic i8 1, ptr @g_z3_log_enabled seq_cst, align 1
  br label %_ZN10z3_log_ctxD2Ev.exit7

_ZN10z3_log_ctxD2Ev.exit7:                        ; preds = %ehcleanup, %if.then.i6
  resume { ptr, i32 } %lpad.val12.merged

terminate.lpad:                                   ; preds = %lpad4
  %10 = landingpad { ptr, i32 }
          catch ptr null
  %11 = extractvalue { ptr, i32 } %10, 0
  tail call void @__clang_call_terminate(ptr %11) #11
  unreachable
}